; Function Attrs: mustprogress uwtable
define hidden void @_ZN5ceres8internal10ThreadPool4StopEv(ptr noundef nonnull align 8 dereferenceable(240) %0) local_unnamed_addr #3 align 2 personality ptr @__gxx_personality_v0 {
  %2 = tail call noundef i32 @pthread_mutex_lock(ptr noundef nonnull align 8 dereferenceable(169) %0) #18
  %.not.i.i.i = icmp eq i32 %2, 0
  br i1 %.not.i.i.i, label %_ZN5ceres8internal15ConcurrentQueueISt8functionIFvvEEE11StopWaitersEv.exit, label %3

3:                                                ; preds = %1
  tail call void @_ZSt20__throw_system_errori(i32 noundef %2) #19
  unreachable

_ZN5ceres8internal15ConcurrentQueueISt8functionIFvvEEE11StopWaitersEv.exit: ; preds = %1
  %4 = getelementptr inbounds nuw i8, ptr %0, i64 168
  store i8 0, ptr %4, align 8, !tbaa !3
  %5 = getelementptr inbounds nuw i8, ptr %0, i64 40
  tail call void @_ZNSt18condition_variable10notify_allEv(ptr noundef nonnull align 8 dereferenceable(48) %5) #18
  %6 = tail call noundef i32 @pthread_mutex_unlock(ptr noundef nonnull align 8 dereferenceable(169) %0) #18
  ret void
}